(lp1
(lp2
S'coffee'
p3
aS'beer'
p4
aa(lp5
((lp6
I7
aI4
aI2
aI2
aI2
aI3
aI2
aI2
aI3
aI2
aI2
aI3
aI2
aI2
aI2
aI2
aI2
aI1
aI1
aI1
aI1
aI1
aI1
aI1
aI1
aI1
aI1
aI1
aI1
aI1
aI1
aI1
aI1
aI1
aI1
aI1
aI1
aI1
aI1
aI1
aI1
aI1
aI1
aI1
aI1
aI1
aI1
aI1
aI1
aI1
aI1
aI1
aI1
aI1
aI1
aI1
aI1
aI1
aI1
aI1
aI1
aI1
aI1
aI1
aI1
aI1
aI1
aI1
aI1
aI1
aI1
aI1
aI1
aI1
aI1
aI1
aI1
aI1
aI1
aI1
aI1
aI1
aI1
aI1
aI1
aI1
aI1
a(lp7
F2.4024826283478378
aF2.3650793650793651
aF1.7777777777777777
aF1.6000000000000001
aF1.6000000000000001
aF1.6000000000000001
aF1.6000000000000001
aF1.5
aF1.6666666666666667
aF1.5
aF1.5
aF1.6666666666666667
aF1.5
aF1.3333333333333333
aF1.3333333333333333
aF1.3333333333333333
aF1.3333333333333333
aF1
aF1
aF1
aF1
aF1
aF1
aF1
aF1
aF1
aF1
aF1
aF1
aF1
aF1
aF1
aF1
aF1
aF1
aF1
aF1
aF1
aF1
aF1
aF1
aF1
aF1
aF1
aF1
aF1
aF1
aF1
aF1
aF1
aF1
aF1
aF1
aF1
aF1
aF1
aF1
aF1
aF1
aF1
aF1
aF1
aF1
aF1
aF1
aF1
aF1
aF1
aF1
aF1
aF1
aF1
aF1
aF1
aF1
aF1
aF1
aF1
aF1
aF1
aF1
aF1
aF1
aF1
aF1
aF1
aF1
atp8
a((lp9
I2
aI2
aI2
aI2
aI2
aI2
aI3
aI2
aI2
aI2
aI3
aI2
aI2
aI2
aI2
aI2
aI2
aI2
aI2
aI2
aI2
aI2
aI2
aI2
aI2
aI2
aI2
aI2
aI2
aI2
aI2
aI2
aI1
aI1
aI1
aI1
aI1
aI1
aI1
aI1
aI1
aI1
aI1
aI1
aI1
aI1
aI1
aI1
aI1
aI1
aI1
aI1
aI1
aI1
aI1
aI1
aI1
aI1
aI1
aI1
aI1
aI1
aI1
aI1
aI1
aI1
aI1
aI1
aI1
aI1
aI1
aI1
aI1
aI1
aI1
aI1
aI1
aI1
aI1
aI1
aI1
aI1
aI1
aI1
aI1
aI1
aI1
aI1
aI1
aI1
aI1
aI1
aI1
aI1
aI1
aI1
aI1
aI1
aI1
aI1
aI1
aI1
aI1
aI1
aI1
aI1
aI1
aI1
aI1
aI1
aI1
aI1
aI1
aI1
aI1
aI1
aI1
aI1
aI1
aI1
aI1
aI1
aI1
aI1
aI1
aI1
aI1
aI1
aI1
aI1
a(lp10
F1.9876543209876543
aF1.8571428571428572
aF1.7777777777777777
aF1.7777777777777777
aF1.75
aF1.75
aF1.7333333333333334
aF1.6000000000000001
aF1.6000000000000001
aF1.6000000000000001
aF1.8
aF1.6000000000000001
aF1.6000000000000001
aF1.5
aF1.5
aF1.3333333333333333
aF1.3333333333333333
aF1.3333333333333333
aF1.3333333333333333
aF1.3333333333333333
aF1.3333333333333333
aF1.3333333333333333
aF1.3333333333333333
aF1.3333333333333333
aF1.3333333333333333
aF1.3333333333333333
aF1.3333333333333333
aF1.3333333333333333
aF1.3333333333333333
aF1.3333333333333333
aF1.3333333333333333
aF1.3333333333333333
aF1
aF1
aF1
aF1
aF1
aF1
aF1
aF1
aF1
aF1
aF1
aF1
aF1
aF1
aF1
aF1
aF1
aF1
aF1
aF1
aF1
aF1
aF1
aF1
aF1
aF1
aF1
aF1
aF1
aF1
aF1
aF1
aF1
aF1
aF1
aF1
aF1
aF1
aF1
aF1
aF1
aF1
aF1
aF1
aF1
aF1
aF1
aF1
aF1
aF1
aF1
aF1
aF1
aF1
aF1
aF1
aF1
aF1
aF1
aF1
aF1
aF1
aF1
aF1
aF1
aF1
aF1
aF1
aF1
aF1
aF1
aF1
aF1
aF1
aF1
aF1
aF1
aF1
aF1
aF1
aF1
aF1
aF1
aF1
aF1
aF1
aF1
aF1
aF1
aF1
aF1
aF1
aF1
aF1
aF1
aF1
aF1
aF1
atp11
aa.